Certificate:
    Data:
        Version: 3 (0x2)
        Serial Number: 2 (0x2)
    Signature Algorithm: ecdsa-with-SHA256
        Issuer: O=Demo Luminaire Manufacturer
        Validity
            Not Before: Jul 12 20:54:39 2018 GMT
            Not After : Jul  9 20:54:39 2028 GMT
        Subject: O=Demo Luminaire Manufacturer, CN=luminaire.example.com
        Subject Public Key Info:
            Public Key Algorithm: id-ecPublicKey
                Public-Key: (256 bit)
                pub: 
                    04:dd:b6:a1:df:ac:e4:24:26:b2:21:02:c7:9b:80:
                    7c:4e:ed:ba:8a:ae:18:e0:42:32:89:58:d8:88:4b:
                    17:7e:65:1d:55:ec:49:99:f3:5d:e3:39:0e:59:8a:
                    d3:c3:9f:3d:0b:64:32:3d:c8:0a:0d:c7:aa:f2:b5:
                    0f:b1:b9:df:74
                ASN1 OID: prime256v1
                NIST CURVE: P-256
        X509v3 extensions:
            X509v3 Key Usage: 
                Digital Signature, Key Encipherment
            X509v3 Authority Key Identifier: 
                keyid:B6:B5:82:ED:65:A9:80:99:44:8E:50:9C:50:DF:48:41:50:FF:BC:35

    Signature Algorithm: ecdsa-with-SHA256
         30:46:02:21:00:92:fa:44:a6:92:98:23:03:30:dc:25:81:b3:
         91:d0:6a:67:12:6d:67:f8:f8:5b:cd:fe:e0:0d:38:53:7b:70:
         21:02:21:00:ad:d0:53:6e:36:10:ac:7a:44:98:f8:e0:5d:20:
         21:0b:7a:b4:13:5d:6f:e4:f0:62:61:f8:f1:05:c5:f0:7c:78
-----BEGIN CERTIFICATE-----
MIIBjDCCATGgAwIBAgIBAjAKBggqhkjOPQQDAjAmMSQwIgYDVQQKDBtEZW1vIEx1
bWluYWlyZSBNYW51ZmFjdHVyZXIwHhcNMTgwNzEyMjA1NDM5WhcNMjgwNzA5MjA1
NDM5WjBGMSQwIgYDVQQKDBtEZW1vIEx1bWluYWlyZSBNYW51ZmFjdHVyZXIxHjAc
BgNVBAMMFWx1bWluYWlyZS5leGFtcGxlLmNvbTBZMBMGByqGSM49AgEGCCqGSM49
AwEHA0IABN22od+s5CQmsiECx5uAfE7tuoquGOBCMolY2IhLF35lHVXsSZnzXeM5
DlmK08OfPQtkMj3ICg3HqvK1D7G533SjMDAuMAsGA1UdDwQEAwIFoDAfBgNVHSME
GDAWgBS2tYLtZamAmUSOUJxQ30hBUP+8NTAKBggqhkjOPQQDAgNJADBGAiEAkvpE
ppKYIwMw3CWBs5HQamcSbWf4+FvN/uANOFN7cCECIQCt0FNuNhCsekSY+OBdICEL
erQTXW/k8GJh+PEFxfB8eA==
-----END CERTIFICATE-----
