Certificate:
    Data:
        Version: 3 (0x2)
        Serial Number: 2 (0x2)
    Signature Algorithm: ecdsa-with-SHA256
        Issuer: O=Demo Luminaire Manufacturer
        Validity
            Not Before: Jun 29 18:09:13 2018 GMT
            Not After : Jun 26 18:09:13 2028 GMT
        Subject: O=Demo Luminaire Manufacturer, CN=MUD_HTTPS
        Subject Public Key Info:
            Public Key Algorithm: id-ecPublicKey
                Public-Key: (256 bit)
                pub: 
                    04:84:ec:aa:69:9c:85:fa:13:57:7e:71:df:3f:8b:
                    af:5f:14:b2:82:a5:9e:fa:67:9e:20:28:ba:e9:37:
                    65:cd:38:60:ad:54:13:e7:dd:02:da:81:dc:11:51:
                    93:5d:90:70:5e:e2:e9:be:f3:b6:fe:09:17:08:65:
                    0b:5b:38:cd:93
                ASN1 OID: prime256v1
                NIST CURVE: P-256
        X509v3 extensions:
            X509v3 Key Usage: 
                Digital Signature, Key Encipherment
            X509v3 Authority Key Identifier: 
                keyid:08:EB:68:F1:F7:2D:07:84:EF:A6:4F:6D:22:F0:C4:09:8D:A7:F3:09

    Signature Algorithm: ecdsa-with-SHA256
         30:46:02:21:00:91:3a:17:a9:5e:e6:d5:9b:15:c8:3a:b5:2e:
         3c:87:26:94:d9:66:d5:c5:70:79:a8:c6:35:9e:3a:4c:cd:71:
         cb:02:21:00:c2:c3:37:80:39:10:a3:db:45:9e:d2:64:e1:9f:
         89:17:f1:e9:be:2b:ef:a8:18:a3:ce:a0:c9:65:a2:05:63:56
-----BEGIN CERTIFICATE-----
MIIBgDCCASWgAwIBAgIBAjAKBggqhkjOPQQDAjAmMSQwIgYDVQQKDBtEZW1vIEx1
bWluYWlyZSBNYW51ZmFjdHVyZXIwHhcNMTgwNjI5MTgwOTEzWhcNMjgwNjI2MTgw
OTEzWjA6MSQwIgYDVQQKDBtEZW1vIEx1bWluYWlyZSBNYW51ZmFjdHVyZXIxEjAQ
BgNVBAMMCU1VRF9IVFRQUzBZMBMGByqGSM49AgEGCCqGSM49AwEHA0IABITsqmmc
hfoTV35x3z+Lr18UsoKlnvpnniAouuk3Zc04YK1UE+fdAtqB3BFRk12QcF7i6b7z
tv4JFwhlC1s4zZOjMDAuMAsGA1UdDwQEAwIFoDAfBgNVHSMEGDAWgBQI62jx9y0H
hO+mT20i8MQJjafzCTAKBggqhkjOPQQDAgNJADBGAiEAkToXqV7m1ZsVyDq1LjyH
JpTZZtXFcHmoxjWeOkzNccsCIQDCwzeAORCj20We0mThn4kX8em+K++oGKPOoMll
ogVjVg==
-----END CERTIFICATE-----
